(lp1
(Vo0o0o
p2
Vbelem09
p3
Vhercules
p4
Vrgk
p5
Vescritor
p6
Vgreenkobold
p7
Vrgkttmsfrf
p8
Vtatothetatoman
p9
Vrenato.fabbri@gmail.com/gmail.906C687F
p10
Vbitanoma
p11
Vrfabbri@gmail.com/gmail.AE0111DD
p12
Vb1O83R
p13
Vrenato.fabbri
p14
Vhybrid_
p15
Vo0o0o__
p16
Vrenatogk
p17
VAoEO3oA
p18
Vhybrid
p19
Vtatoman
p20
Vblober
p21
Vhybrid__
p22
tp23
a(Vhumannoise
p24
VIms0iniA
p25
Vhumannoise_janta
p26
ViSnowBall
p27
Vfilter0
p28
Vhj4adj
p29
VzAoEO3oAz
p30
VPenalva
p31
Vm4r-10ns
p32
VSUoU9
p33
Vhumannoise_
p34
Vm4r10n
p35
Vbolitutti
p36
Vdkajah@gmail.com/gmail.97B278F3
p37
Vfilter1
p38
tp39
a(Vangelina
p40
Vpatriciaferraz007
p41
Vpatriciaferraz007@gmail.com/gmail.B4BD77BD
p42
Vangelina_
p43
Vpatriciaferraz007@gmail.com/gmail.90494DE8
p44
Vpatriciaferraz007@gmail.com/gmail.904A38A1
p45
tp46
a(Vprestoppc
p47
Vpresto.correa
p48
Vprestopppc
p49
Vpresto.correa@gmail.com/android_talk9bbb29508
p50
Vprestoppc_mob
p51
Vprestoppc_
p52
tp53
a(Vcravelho
p54
Vcravista
p55
Vgcravista@gmail.com/gmail.9404F244
p56
Vcravelho1
p57
VcR4v0
p58
Varvonpart
p59
Vcravo_quilombola
p60
tp61
a(Vv1z
p62
Vv1z____
p63
Vrfabbri@gmail.com/gmail.A4063E2C
p64
Vv1z__
p65
Vv1z_____
p66
Vv1z_
p67
tp68
a(Vaudiohack
p69
Vaudi0h4ck
p70
Vaudioh4ck
p71
Vbanzidro
p72
Vbog_wog
p73
tp74
a(Vpsjr
p75
VPjr
p76
Vpsjr1
p77
Vpsjr_mob
p78
tp79
a(Vautomata
p80
Vautomata_
p81
Vaut0mata
p82
Vvilson@void.cc/gmail.8C25809D
p83
tp84
a(Vanonymous
p85
VoNickOuAnonimo
p86
VGuest31006
p87
tp88
a(Vggdo
p89
Vggdo_
p90
tp91
a(Vwitness
p92
Vwitness123
p93
tp94
a(VsescBelenzinho
p95
Vbelenzinho1
p96
tp97
a(Vtonussi
p98
Vlucastonussi
p99
tp100
a(Vgabithume
p101
Vg4|3i
p102
tp103
a(Vliascava@gmail.com/Adium9EE13DB7
p104
Vliascava@gmail.com/Adium38AE6743
p105
tp106
a(Velmanchez
p107
Vmancha_
p108
tp109
a(Vglerm
p110
Vorganismo@gmail.com/gmail.90B01A72
p111
tp112
a(Vhiatobr
p113
Vhiatobr1
p114
tp115
a(Vadr___
p116
Vadrianobf@gmail.com/gmail.909438F0
p117
tp118
a(V__YupanaKernel__
p119
V________________
p120
tp121
a(VDaneoShiga
p122
tp123
a(Vjow
p124
tp125
a(Vgonzo__
p126
tp127
a(Vcardinot
p128
tp129
a(VAk1n
p130
tp131
a(VPedroBarata
p132
tp133
a(VFlecha
p134
tp135
a(Vjoepie91
p136
tp137
a(Vdj_brip
p138
tp139
a(Vhick209
p140
tp141
a(Vdoceafagonanuca
p142
tp143
a(Vpaulordbm
p144
tp145
a(VAderbal
p146
tp147
a(Vslucky
p148
tp149
a(Vcapo
p150
tp151
a(Vteste
p152
tp153
a(Vlibotte
p154
tp155
a(Vjpmehl@ethymos.com.br/gmail.9F07F856
p156
tp157
a(VManjaro
p158
tp159
a(Vgilsonbeck
p160
tp161
a(Vmonod
p162
tp163
a(Vid found as shout creator but not as id for user with nick
p164
tp165
a(Vcrash_demons
p166
tp167
a(VSrKaioh
p168
tp169
a(Viuriguilherme
p170
tp171
a(Vmachado.felipe@gmail.com/Adium0C26F93C
p172
tp173
a(VRafaman
p174
tp175
a(Vquirinobahr
p176
tp177
a(Vtibiriba
p178
tp179
a(Vleib999
p180
tp181
a(Vbjonnh
p182
tp183
a(Vkbsa
p184
tp185
a(Vcaioc2
p186
tp187
a(Vricabras@gmail.com/gmail.904B2C94
p188
tp189
a(Vlari
p190
tp191
a(Vmquasar
p192
tp193
a(Vatmt
p194
tp195
a(Vqueen_
p196
tp197
a(Vaurium@gmail.com/COLIVRED6CC94B6
p198
tp199
a(Vmalacabado
p200
tp201
a(Vleosimoes
p202
tp203
a(Veah
p204
tp205
a(Vcibeleborg
p206
tp207
a(Vkraven
p208
tp209
a(Vguilherme.rk@gmail.com/8E24EAB9
p210
tp211
a(VlacRavoLenia
p212
tp213
a(VMateus
p214
tp215
a(Vcoletivo
p216
tp217
a(Vpliskin
p218
tp219
a(Vhmbr
p220
tp221
a(Vrck
p222
tp223
a(Vsephiohff8@gmail.com/gmail.905F831B
p224
tp225
a(VfdeSanca
p226
tp227
a(Vfran_paizao
p228
tp229
a(Vongueiro
p230
tp231
a(Vyasodara.cordova@gmail.com/gmail.8C0CD943
p232
tp233
a(Vcasanova
p234
tp235
a(Vgama.puraque
p236
tp237
a(Vtarrafa
p238
tp239
a(Vrfabbri
p240
tp241
a(Vcelularkobold
p242
tp243
a(Vananse
p244
tp245
a(Vkamiarc
p246
tp247
a(VFefo
p248
tp249
a(Vgosma
p250
tp251
a(Vlap01
p252
tp253
a(Vpaloma
p254
tp255
a(Vbarraponto@gmail.com/gmail.B4BE8C17
p256
tp257
a(VThibo
p258
tp259
a(Vol2lando
p260
tp261
a(Vlmatos
p262
tp263
a(Visaura
p264
tp265
a(Vmari_
p266
tp267
a(Vlalenia
p268
tp269
a(Vdaniel@teia.org.br/gmail.8F8166F9
p270
tp271
a(Vlucas
p272
tp273
a(Videnti.ca
p274
tp275
a(Vb0ttt
p276
tp277
a(Vwarlock
p278
tp279
a(Valeij
p280
tp281
a(Vispmarin
p282
tp283
a.